; Function Attrs: mustprogress uwtable
define void @_ZN7rocksdb9lru_cache14LRUHandleTableC2EiPNS_15MemoryAllocatorE(ptr nocapture noundef nonnull writeonly align 8 dereferenceable(32) %this, i32 noundef %max_upper_hash_bits, ptr noundef %allocator) unnamed_addr #0 align 2 personality ptr @__gxx_personality_v0 {
entry:
  store i32 4, ptr %this, align 8
  %list_ = getelementptr inbounds i8, ptr %this, i64 8
  %call = tail call noalias noundef nonnull dereferenceable(128) ptr @_Znam(i64 noundef 128) #24
  tail call void @llvm.memset.p0.i64(ptr noundef nonnull align 8 dereferenceable(128) %call, i8 0, i64 128, i1 false)
  store ptr %call, ptr %list_, align 8
  %elems_ = getelementptr inbounds i8, ptr %this, i64 16
  store i32 0, ptr %elems_, align 8
  %max_length_bits_ = getelementptr inbounds i8, ptr %this, i64 20
  store i32 %max_upper_hash_bits, ptr %max_length_bits_, align 4
  %allocator_ = getelementptr inbounds i8, ptr %this, i64 24
  store ptr %allocator, ptr %allocator_, align 8
  ret void
}